target datalayout = "e-m:e-p270:32:32-p271:32:32-p272:64:64-i64:64-i128:128-f80:128-n8:16:32:64-S128"
target triple = "x86_64-pc-linux-gnu"

%struct.mszipd_stream = type { ptr, ptr, ptr, i32, ptr, i32, i32, i32, ptr, ptr, ptr, ptr, ptr, i8, i32, i32, i32, [288 x i8], [32 x i8], [1152 x i16], [128 x i16], [32768 x i8] }

; Function Attrs: nounwind uwtable
define internal i32 @mszipd_flush_window(ptr noundef %0, i32 noundef %1) #0 {
  %3 = alloca i32, align 4
  %4 = alloca ptr, align 8
  %5 = alloca i32, align 4
  store ptr %0, ptr %4, align 8, !tbaa !14
  store i32 %1, ptr %5, align 4, !tbaa !10
  %6 = load i32, ptr %5, align 4, !tbaa !10
  %7 = load ptr, ptr %4, align 8, !tbaa !14
  %8 = getelementptr inbounds nuw %struct.mszipd_stream, ptr %7, i32 0, i32 7
  %9 = load i32, ptr %8, align 8, !tbaa !34
  %10 = add i32 %9, %6
  store i32 %10, ptr %8, align 8, !tbaa !34
  %11 = load ptr, ptr %4, align 8, !tbaa !14
  %12 = getelementptr inbounds nuw %struct.mszipd_stream, ptr %11, i32 0, i32 7
  %13 = load i32, ptr %12, align 8, !tbaa !34
  %14 = icmp sgt i32 %13, 32768
  br i1 %14, label %15, label %16

15:                                               ; preds = %2
  store i32 1, ptr %3, align 4
  br label %17

16:                                               ; preds = %2
  store i32 0, ptr %3, align 4
  br label %17

17:                                               ; preds = %16, %15
  %18 = load i32, ptr %3, align 4
  ret i32 %18
}