; Function Attrs: mustprogress nofree norecurse nosync nounwind willreturn memory(argmem: readwrite) uwtable
define internal range(i32 0, 2) i32 @mszipd_flush_window(ptr noundef captures(none) %0, i32 noundef %1) #2 {
  %3 = getelementptr inbounds nuw i8, ptr %0, i64 48
  %4 = load i32, ptr %3, align 8, !tbaa !27
  %5 = add i32 %4, %1
  store i32 %5, ptr %3, align 8, !tbaa !27
  %6 = icmp sgt i32 %5, 32768
  %. = zext i1 %6 to i32
  ret i32 %.
}